; Function Attrs: nofree nounwind uwtable
define internal noundef i32 @H5O__cont_debug(ptr readnone captures(none) %0, ptr noundef readonly captures(none) %1, ptr noundef captures(none) %2, i32 noundef %3, i32 noundef %4) #1 {
  %6 = load i8, ptr @H5O_init_g, align 1, !tbaa !8, !range !10, !noundef !11
  %7 = trunc nuw i8 %6 to i1
  %8 = load i8, ptr @H5_libterm_g, align 1, !range !10
  %9 = trunc nuw i8 %8 to i1
  %10 = xor i1 %9, true
  %11 = select i1 %7, i1 true, i1 %10
  br i1 %11, label %12, label %21, !prof !12

12:                                               ; preds = %5
  %13 = load i64, ptr %1, align 8, !tbaa !22
  %14 = tail call i32 (ptr, ptr, ...) @fprintf(ptr noundef %2, ptr noundef nonnull @.str.6, i32 noundef %3, ptr noundef nonnull @.str.7, i32 noundef %4, ptr noundef nonnull @.str.8, i64 noundef %13) #4
  %15 = getelementptr inbounds nuw i8, ptr %1, i64 8
  %16 = load i64, ptr %15, align 8, !tbaa !16
  %17 = tail call i32 (ptr, ptr, ...) @fprintf(ptr noundef %2, ptr noundef nonnull @.str.6, i32 noundef %3, ptr noundef nonnull @.str.7, i32 noundef %4, ptr noundef nonnull @.str.9, i64 noundef %16) #4
  %18 = getelementptr inbounds nuw i8, ptr %1, i64 16
  %19 = load i32, ptr %18, align 8, !tbaa !21
  %20 = tail call i32 (ptr, ptr, ...) @fprintf(ptr noundef %2, ptr noundef nonnull @.str.10, i32 noundef %3, ptr noundef nonnull @.str.7, i32 noundef %4, ptr noundef nonnull @.str.11, i32 noundef %19) #4
  br label %21

21:                                               ; preds = %12, %5
  ret i32 0
}